target datalayout = "e-m:e-p270:32:32-p271:32:32-p272:64:64-i64:64-i128:128-f80:128-n8:16:32:64-S128"
target triple = "x86_64-pc-linux-gnu"

%struct.Int_Man_t_ = type { ptr, [16 x i32], i32, i32, i32, i32, i32, i32, i32, i32, ptr, ptr, ptr, ptr, ptr, i32, ptr, ptr, i32, i32, i32, ptr, ptr, ptr, i32, i32, i64, i64, i64 }
%struct.Sto_Man_t_ = type { i32, i32, i32, i32, ptr, ptr, ptr, i32, i32, ptr }
%struct.Sto_Cls_t_ = type { ptr, ptr, ptr, i32, i32, [0 x i32] }
%struct.timespec = type { i64, i64 }

@.str.18 = private unnamed_addr constant [11 x i8] c"proof.cnf_\00", align 1
@.str.19 = private unnamed_addr constant [2 x i8] c"w\00", align 1
@.str.20 = private unnamed_addr constant [84 x i8] c"Vars = %d. Roots = %d. Learned = %d. Resol steps = %d.  Ave = %.2f.  Mem = %.2f MB\0A\00", align 1

; Function Attrs: inlinehint nounwind uwtable
define internal ptr @Int_ManTruthRead(ptr noundef %0, ptr noundef %1) #4 {
  %3 = alloca ptr, align 8
  %4 = alloca ptr, align 8
  store ptr %0, ptr %3, align 8, !tbaa !3
  store ptr %1, ptr %4, align 8, !tbaa !26
  %5 = load ptr, ptr %3, align 8, !tbaa !3
  %6 = getelementptr inbounds nuw %struct.Int_Man_t_, ptr %5, i32 0, i32 17
  %7 = load ptr, ptr %6, align 8, !tbaa !52
  %8 = load ptr, ptr %4, align 8, !tbaa !26
  %9 = getelementptr inbounds nuw %struct.Sto_Cls_t_, ptr %8, i32 0, i32 3
  %10 = load i32, ptr %9, align 8, !tbaa !53
  %11 = load ptr, ptr %3, align 8, !tbaa !3
  %12 = getelementptr inbounds nuw %struct.Int_Man_t_, ptr %11, i32 0, i32 19
  %13 = load i32, ptr %12, align 4, !tbaa !46
  %14 = mul nsw i32 %10, %13
  %15 = sext i32 %14 to i64
  %16 = getelementptr inbounds i32, ptr %7, i64 %15
  ret ptr %16
}

; Function Attrs: inlinehint nounwind uwtable
define internal i64 @Abc_Clock() #4 {
  %1 = alloca i64, align 8
  %2 = alloca %struct.timespec, align 8
  %3 = alloca i32, align 4
  %4 = alloca i64, align 8
  call void @llvm.lifetime.start.p0(i64 16, ptr %2) #9
  %5 = call i32 @clock_gettime(i32 noundef 1, ptr noundef %2) #9
  %6 = icmp slt i32 %5, 0
  br i1 %6, label %7, label %8

7:                                                ; preds = %0
  store i64 -1, ptr %1, align 8
  store i32 1, ptr %3, align 4
  br label %19

8:                                                ; preds = %0
  call void @llvm.lifetime.start.p0(i64 8, ptr %4) #9
  %9 = getelementptr inbounds nuw %struct.timespec, ptr %2, i32 0, i32 0
  %10 = load i64, ptr %9, align 8, !tbaa !114
  %11 = mul nsw i64 %10, 1000000
  store i64 %11, ptr %4, align 8, !tbaa !60
  %12 = getelementptr inbounds nuw %struct.timespec, ptr %2, i32 0, i32 1
  %13 = load i64, ptr %12, align 8, !tbaa !116
  %14 = mul nsw i64 %13, 1000000
  %15 = sdiv i64 %14, 1000000000
  %16 = load i64, ptr %4, align 8, !tbaa !60
  %17 = add nsw i64 %16, %15
  store i64 %17, ptr %4, align 8, !tbaa !60
  %18 = load i64, ptr %4, align 8, !tbaa !60
  store i64 %18, ptr %1, align 8
  store i32 1, ptr %3, align 4
  call void @llvm.lifetime.end.p0(i64 8, ptr %4) #9
  br label %19

19:                                               ; preds = %8, %7
  call void @llvm.lifetime.end.p0(i64 16, ptr %2) #9
  %20 = load i64, ptr %1, align 8
  ret i64 %20
}

; Function Attrs: nounwind uwtable
define i32 @Int_ManInterpolate(ptr noundef %0, ptr noundef %1, i32 noundef %2, ptr noundef %3) #0 {
  %5 = alloca ptr, align 8
  %6 = alloca ptr, align 8
  %7 = alloca i32, align 4
  %8 = alloca ptr, align 8
  %9 = alloca ptr, align 8
  %10 = alloca i32, align 4
  %11 = alloca i64, align 8
  store ptr %0, ptr %5, align 8, !tbaa !3
  store ptr %1, ptr %6, align 8, !tbaa !106
  store i32 %2, ptr %7, align 4, !tbaa !20
  store ptr %3, ptr %8, align 8, !tbaa !107
  call void @llvm.lifetime.start.p0(i64 8, ptr %9) #9
  call void @llvm.lifetime.start.p0(i64 4, ptr %10) #9
  store i32 1, ptr %10, align 4, !tbaa !20
  call void @llvm.lifetime.start.p0(i64 8, ptr %11) #9
  %12 = call i64 @Abc_Clock()
  store i64 %12, ptr %11, align 8, !tbaa !60
  %13 = load ptr, ptr %6, align 8, !tbaa !106
  %14 = load ptr, ptr %5, align 8, !tbaa !3
  %15 = getelementptr inbounds nuw %struct.Int_Man_t_, ptr %14, i32 0, i32 0
  store ptr %13, ptr %15, align 8, !tbaa !22
  %16 = load i32, ptr %7, align 4, !tbaa !20
  %17 = load ptr, ptr %5, align 8, !tbaa !3
  %18 = getelementptr inbounds nuw %struct.Int_Man_t_, ptr %17, i32 0, i32 3
  store i32 %16, ptr %18, align 4, !tbaa !97
  %19 = load ptr, ptr %8, align 8, !tbaa !107
  store ptr null, ptr %19, align 8, !tbaa !55
  %20 = load ptr, ptr %5, align 8, !tbaa !3
  call void @Int_ManResize(ptr noundef %20)
  %21 = load ptr, ptr %5, align 8, !tbaa !3
  call void @Int_ManPrepareInter(ptr noundef %21)
  %22 = load ptr, ptr %5, align 8, !tbaa !3
  %23 = getelementptr inbounds nuw %struct.Int_Man_t_, ptr %22, i32 0, i32 5
  %24 = load i32, ptr %23, align 4, !tbaa !18
  %25 = icmp ne i32 %24, 0
  br i1 %25, label %26, label %32

26:                                               ; preds = %4
  %27 = call noalias ptr @fopen(ptr noundef @.str.18, ptr noundef @.str.19)
  %28 = load ptr, ptr %5, align 8, !tbaa !3
  %29 = getelementptr inbounds nuw %struct.Int_Man_t_, ptr %28, i32 0, i32 22
  store ptr %27, ptr %29, align 8, !tbaa !70
  %30 = load ptr, ptr %5, align 8, !tbaa !3
  %31 = getelementptr inbounds nuw %struct.Int_Man_t_, ptr %30, i32 0, i32 20
  store i32 0, ptr %31, align 8, !tbaa !69
  br label %32

32:                                               ; preds = %26, %4
  %33 = load ptr, ptr %5, align 8, !tbaa !3
  %34 = getelementptr inbounds nuw %struct.Int_Man_t_, ptr %33, i32 0, i32 0
  %35 = load ptr, ptr %34, align 8, !tbaa !22
  %36 = getelementptr inbounds nuw %struct.Sto_Man_t_, ptr %35, i32 0, i32 4
  %37 = load ptr, ptr %36, align 8, !tbaa !23
  store ptr %37, ptr %9, align 8, !tbaa !26
  br label %38

38:                                               ; preds = %53, %32
  %39 = load ptr, ptr %9, align 8, !tbaa !26
  %40 = icmp ne ptr %39, null
  br i1 %40, label %41, label %48

41:                                               ; preds = %38
  %42 = load ptr, ptr %9, align 8, !tbaa !26
  %43 = getelementptr inbounds nuw %struct.Sto_Cls_t_, ptr %42, i32 0, i32 4
  %44 = load i32, ptr %43, align 4
  %45 = lshr i32 %44, 1
  %46 = and i32 %45, 1
  %47 = icmp ne i32 %46, 0
  br label %48

48:                                               ; preds = %41, %38
  %49 = phi i1 [ false, %38 ], [ %47, %41 ]
  br i1 %49, label %50, label %57

50:                                               ; preds = %48
  %51 = load ptr, ptr %5, align 8, !tbaa !3
  %52 = load ptr, ptr %9, align 8, !tbaa !26
  call void @Int_ManProofWriteOne(ptr noundef %51, ptr noundef %52)
  br label %53

53:                                               ; preds = %50
  %54 = load ptr, ptr %9, align 8, !tbaa !26
  %55 = getelementptr inbounds nuw %struct.Sto_Cls_t_, ptr %54, i32 0, i32 0
  %56 = load ptr, ptr %55, align 8, !tbaa !30
  store ptr %56, ptr %9, align 8, !tbaa !26
  br label %38, !llvm.loop !109

57:                                               ; preds = %48
  %58 = load ptr, ptr %5, align 8, !tbaa !3
  %59 = call i32 @Int_ManProcessRoots(ptr noundef %58)
  %60 = icmp ne i32 %59, 0
  br i1 %60, label %61, label %90

61:                                               ; preds = %57
  %62 = load ptr, ptr %5, align 8, !tbaa !3
  %63 = getelementptr inbounds nuw %struct.Int_Man_t_, ptr %62, i32 0, i32 0
  %64 = load ptr, ptr %63, align 8, !tbaa !22
  %65 = getelementptr inbounds nuw %struct.Sto_Man_t_, ptr %64, i32 0, i32 4
  %66 = load ptr, ptr %65, align 8, !tbaa !23
  store ptr %66, ptr %9, align 8, !tbaa !26
  br label %67

67:                                               ; preds = %85, %61
  %68 = load ptr, ptr %9, align 8, !tbaa !26
  %69 = icmp ne ptr %68, null
  br i1 %69, label %70, label %89

70:                                               ; preds = %67
  %71 = load ptr, ptr %9, align 8, !tbaa !26
  %72 = getelementptr inbounds nuw %struct.Sto_Cls_t_, ptr %71, i32 0, i32 4
  %73 = load i32, ptr %72, align 4
  %74 = lshr i32 %73, 1
  %75 = and i32 %74, 1
  %76 = icmp ne i32 %75, 0
  br i1 %76, label %77, label %78

77:                                               ; preds = %70
  br label %85

78:                                               ; preds = %70
  %79 = load ptr, ptr %5, align 8, !tbaa !3
  %80 = load ptr, ptr %9, align 8, !tbaa !26
  %81 = call i32 @Int_ManProofRecordOne(ptr noundef %79, ptr noundef %80)
  %82 = icmp ne i32 %81, 0
  br i1 %82, label %84, label %83

83:                                               ; preds = %78
  store i32 0, ptr %10, align 4, !tbaa !20
  br label %89

84:                                               ; preds = %78
  br label %85

85:                                               ; preds = %84, %77
  %86 = load ptr, ptr %9, align 8, !tbaa !26
  %87 = getelementptr inbounds nuw %struct.Sto_Cls_t_, ptr %86, i32 0, i32 0
  %88 = load ptr, ptr %87, align 8, !tbaa !30
  store ptr %88, ptr %9, align 8, !tbaa !26
  br label %67, !llvm.loop !110

89:                                               ; preds = %83, %67
  br label %90

90:                                               ; preds = %89, %57
  %91 = load ptr, ptr %5, align 8, !tbaa !3
  %92 = getelementptr inbounds nuw %struct.Int_Man_t_, ptr %91, i32 0, i32 5
  %93 = load i32, ptr %92, align 4, !tbaa !18
  %94 = icmp ne i32 %93, 0
  br i1 %94, label %95, label %102

95:                                               ; preds = %90
  %96 = load ptr, ptr %5, align 8, !tbaa !3
  %97 = getelementptr inbounds nuw %struct.Int_Man_t_, ptr %96, i32 0, i32 22
  %98 = load ptr, ptr %97, align 8, !tbaa !70
  %99 = call i32 @fclose(ptr noundef %98)
  %100 = load ptr, ptr %5, align 8, !tbaa !3
  %101 = getelementptr inbounds nuw %struct.Int_Man_t_, ptr %100, i32 0, i32 22
  store ptr null, ptr %101, align 8, !tbaa !70
  br label %102

102:                                              ; preds = %95, %90
  %103 = load i32, ptr %7, align 4, !tbaa !20
  %104 = icmp ne i32 %103, 0
  br i1 %104, label %105, label %169

105:                                              ; preds = %102
  %106 = load ptr, ptr %5, align 8, !tbaa !3
  %107 = getelementptr inbounds nuw %struct.Int_Man_t_, ptr %106, i32 0, i32 0
  %108 = load ptr, ptr %107, align 8, !tbaa !22
  %109 = getelementptr inbounds nuw %struct.Sto_Man_t_, ptr %108, i32 0, i32 0
  %110 = load i32, ptr %109, align 8, !tbaa !36
  %111 = load ptr, ptr %5, align 8, !tbaa !3
  %112 = getelementptr inbounds nuw %struct.Int_Man_t_, ptr %111, i32 0, i32 0
  %113 = load ptr, ptr %112, align 8, !tbaa !22
  %114 = getelementptr inbounds nuw %struct.Sto_Man_t_, ptr %113, i32 0, i32 1
  %115 = load i32, ptr %114, align 4, !tbaa !111
  %116 = load ptr, ptr %5, align 8, !tbaa !3
  %117 = getelementptr inbounds nuw %struct.Int_Man_t_, ptr %116, i32 0, i32 0
  %118 = load ptr, ptr %117, align 8, !tbaa !22
  %119 = getelementptr inbounds nuw %struct.Sto_Man_t_, ptr %118, i32 0, i32 2
  %120 = load i32, ptr %119, align 8, !tbaa !48
  %121 = load ptr, ptr %5, align 8, !tbaa !3
  %122 = getelementptr inbounds nuw %struct.Int_Man_t_, ptr %121, i32 0, i32 0
  %123 = load ptr, ptr %122, align 8, !tbaa !22
  %124 = getelementptr inbounds nuw %struct.Sto_Man_t_, ptr %123, i32 0, i32 1
  %125 = load i32, ptr %124, align 4, !tbaa !111
  %126 = sub nsw i32 %120, %125
  %127 = load ptr, ptr %5, align 8, !tbaa !3
  %128 = getelementptr inbounds nuw %struct.Int_Man_t_, ptr %127, i32 0, i32 20
  %129 = load i32, ptr %128, align 8, !tbaa !69
  %130 = load ptr, ptr %5, align 8, !tbaa !3
  %131 = getelementptr inbounds nuw %struct.Int_Man_t_, ptr %130, i32 0, i32 20
  %132 = load i32, ptr %131, align 8, !tbaa !69
  %133 = load ptr, ptr %5, align 8, !tbaa !3
  %134 = getelementptr inbounds nuw %struct.Int_Man_t_, ptr %133, i32 0, i32 0
  %135 = load ptr, ptr %134, align 8, !tbaa !22
  %136 = getelementptr inbounds nuw %struct.Sto_Man_t_, ptr %135, i32 0, i32 1
  %137 = load i32, ptr %136, align 4, !tbaa !111
  %138 = sub nsw i32 %132, %137
  %139 = sitofp i32 %138 to double
  %140 = fmul double 1.000000e+00, %139
  %141 = load ptr, ptr %5, align 8, !tbaa !3
  %142 = getelementptr inbounds nuw %struct.Int_Man_t_, ptr %141, i32 0, i32 0
  %143 = load ptr, ptr %142, align 8, !tbaa !22
  %144 = getelementptr inbounds nuw %struct.Sto_Man_t_, ptr %143, i32 0, i32 2
  %145 = load i32, ptr %144, align 8, !tbaa !48
  %146 = load ptr, ptr %5, align 8, !tbaa !3
  %147 = getelementptr inbounds nuw %struct.Int_Man_t_, ptr %146, i32 0, i32 0
  %148 = load ptr, ptr %147, align 8, !tbaa !22
  %149 = getelementptr inbounds nuw %struct.Sto_Man_t_, ptr %148, i32 0, i32 1
  %150 = load i32, ptr %149, align 4, !tbaa !111
  %151 = sub nsw i32 %145, %150
  %152 = sitofp i32 %151 to double
  %153 = fdiv double %140, %152
  %154 = load ptr, ptr %5, align 8, !tbaa !3
  %155 = getelementptr inbounds nuw %struct.Int_Man_t_, ptr %154, i32 0, i32 0
  %156 = load ptr, ptr %155, align 8, !tbaa !22
  %157 = call i32 @Sto_ManMemoryReport(ptr noundef %156)
  %158 = sitofp i32 %157 to double
  %159 = fmul double 1.000000e+00, %158
  %160 = fdiv double %159, 0x4130000000000000
  %161 = call i32 (ptr, ...) @printf(ptr noundef @.str.20, i32 noundef %110, i32 noundef %115, i32 noundef %126, i32 noundef %129, double noundef %153, double noundef %160)
  %162 = call i64 @Abc_Clock()
  %163 = load i64, ptr %11, align 8, !tbaa !60
  %164 = sub nsw i64 %162, %163
  %165 = load ptr, ptr %5, align 8, !tbaa !3
  %166 = getelementptr inbounds nuw %struct.Int_Man_t_, ptr %165, i32 0, i32 28
  %167 = load i64, ptr %166, align 8, !tbaa !112
  %168 = add nsw i64 %167, %164
  store i64 %168, ptr %166, align 8, !tbaa !112
  br label %169

169:                                              ; preds = %105, %102
  %170 = load ptr, ptr %5, align 8, !tbaa !3
  %171 = load ptr, ptr %5, align 8, !tbaa !3
  %172 = getelementptr inbounds nuw %struct.Int_Man_t_, ptr %171, i32 0, i32 0
  %173 = load ptr, ptr %172, align 8, !tbaa !22
  %174 = getelementptr inbounds nuw %struct.Sto_Man_t_, ptr %173, i32 0, i32 5
  %175 = load ptr, ptr %174, align 8, !tbaa !113
  %176 = call ptr @Int_ManTruthRead(ptr noundef %170, ptr noundef %175)
  %177 = load ptr, ptr %8, align 8, !tbaa !107
  store ptr %176, ptr %177, align 8, !tbaa !55
  %178 = load ptr, ptr %5, align 8, !tbaa !3
  %179 = getelementptr inbounds nuw %struct.Int_Man_t_, ptr %178, i32 0, i32 15
  %180 = load i32, ptr %179, align 8, !tbaa !45
  call void @llvm.lifetime.end.p0(i64 8, ptr %11) #9
  call void @llvm.lifetime.end.p0(i64 4, ptr %10) #9
  call void @llvm.lifetime.end.p0(i64 8, ptr %9) #9
  ret i32 %180
}