; Function Attrs: nounwind uwtable
define i32 @Int_ManInterpolate(ptr noundef captures(none) initializes((0, 8), (76, 80)) %0, ptr noundef %1, i32 noundef %2, ptr noundef writeonly captures(none) initializes((0, 8)) %3) local_unnamed_addr #6 {
  %5 = alloca %struct.timespec, align 8
  %6 = alloca %struct.timespec, align 8
  call void @llvm.lifetime.start.p0(i64 16, ptr nonnull %6) #19
  %7 = call i32 @clock_gettime(i32 noundef 1, ptr noundef nonnull %6) #19
  %8 = icmp slt i32 %7, 0
  br i1 %8, label %Abc_Clock.exit, label %9

9:                                                ; preds = %4
  %10 = load i64, ptr %6, align 8, !tbaa !54
  %.neg54 = mul i64 %10, -1000000
  %11 = getelementptr inbounds nuw i8, ptr %6, i64 8
  %12 = load i64, ptr %11, align 8, !tbaa !56
  %.neg = sdiv i64 %12, -1000
  %.neg55 = add i64 %.neg, %.neg54
  br label %Abc_Clock.exit

Abc_Clock.exit:                                   ; preds = %4, %9
  %.0.i.neg = phi i64 [ %.neg55, %9 ], [ 1, %4 ]
  call void @llvm.lifetime.end.p0(i64 16, ptr nonnull %6) #19
  store ptr %1, ptr %0, align 8, !tbaa !18
  %13 = getelementptr inbounds nuw i8, ptr %0, i64 76
  store i32 %2, ptr %13, align 4, !tbaa !94
  store ptr null, ptr %3, align 8, !tbaa !99
  call void @Int_ManResize(ptr noundef nonnull %0)
  call void @Int_ManPrepareInter(ptr noundef nonnull %0)
  %14 = getelementptr inbounds nuw i8, ptr %0, i64 84
  %15 = load i32, ptr %14, align 4, !tbaa !65
  %.not = icmp eq i32 %15, 0
  br i1 %.not, label %20, label %16

16:                                               ; preds = %Abc_Clock.exit
  %17 = call noalias ptr @fopen(ptr noundef nonnull @.str.18, ptr noundef nonnull @.str.19)
  %18 = getelementptr inbounds nuw i8, ptr %0, i64 192
  store ptr %17, ptr %18, align 8, !tbaa !66
  %19 = getelementptr inbounds nuw i8, ptr %0, i64 176
  store i32 0, ptr %19, align 8, !tbaa !64
  br label %20

20:                                               ; preds = %16, %Abc_Clock.exit
  %21 = load ptr, ptr %0, align 8, !tbaa !18
  %22 = getelementptr inbounds nuw i8, ptr %21, i64 16
  %.056 = load ptr, ptr %22, align 8, !tbaa !19
  %.not4257 = icmp eq ptr %.056, null
  br i1 %.not4257, label %.critedge, label %.lr.ph

.lr.ph:                                           ; preds = %20, %26
  %.058 = phi ptr [ %.0, %26 ], [ %.056, %20 ]
  %23 = getelementptr inbounds nuw i8, ptr %.058, i64 28
  %24 = load i32, ptr %23, align 4
  %25 = and i32 %24, 2
  %.not43 = icmp eq i32 %25, 0
  br i1 %.not43, label %.critedge, label %26

26:                                               ; preds = %.lr.ph
  call void @Int_ManProofWriteOne(ptr noundef nonnull %0, ptr noundef nonnull %.058)
  %.0 = load ptr, ptr %.058, align 8, !tbaa !19
  %.not42 = icmp eq ptr %.0, null
  br i1 %.not42, label %.critedge, label %.lr.ph, !llvm.loop !100

.critedge:                                        ; preds = %.lr.ph, %26, %20
  %27 = call i32 @Int_ManProcessRoots(ptr noundef nonnull %0)
  %.not44 = icmp eq i32 %27, 0
  br i1 %.not44, label %.loopexit, label %28

28:                                               ; preds = %.critedge
  %29 = load ptr, ptr %0, align 8, !tbaa !18
  %30 = getelementptr inbounds nuw i8, ptr %29, i64 16
  %.160 = load ptr, ptr %30, align 8, !tbaa !19
  %.not4561 = icmp eq ptr %.160, null
  br i1 %.not4561, label %.loopexit, label %.lr.ph63

.lr.ph63:                                         ; preds = %28, %36
  %.162 = phi ptr [ %.1, %36 ], [ %.160, %28 ]
  %31 = getelementptr inbounds nuw i8, ptr %.162, i64 28
  %32 = load i32, ptr %31, align 4
  %33 = and i32 %32, 2
  %.not46 = icmp eq i32 %33, 0
  br i1 %.not46, label %34, label %36

34:                                               ; preds = %.lr.ph63
  %35 = call i32 @Int_ManProofRecordOne(ptr noundef nonnull %0, ptr noundef nonnull %.162)
  %.not47 = icmp eq i32 %35, 0
  br i1 %.not47, label %.loopexit, label %36

36:                                               ; preds = %34, %.lr.ph63
  %.1 = load ptr, ptr %.162, align 8, !tbaa !19
  %.not45 = icmp eq ptr %.1, null
  br i1 %.not45, label %.loopexit, label %.lr.ph63, !llvm.loop !101

.loopexit:                                        ; preds = %36, %34, %28, %.critedge
  %37 = load i32, ptr %14, align 4, !tbaa !65
  %.not48 = icmp eq i32 %37, 0
  br i1 %.not48, label %42, label %38

38:                                               ; preds = %.loopexit
  %39 = getelementptr inbounds nuw i8, ptr %0, i64 192
  %40 = load ptr, ptr %39, align 8, !tbaa !66
  %41 = call i32 @fclose(ptr noundef %40)
  store ptr null, ptr %39, align 8, !tbaa !66
  br label %42

42:                                               ; preds = %38, %.loopexit
  %.not49 = icmp eq i32 %2, 0
  %.pre65 = load ptr, ptr %0, align 8, !tbaa !18
  br i1 %.not49, label %73, label %43

43:                                               ; preds = %42
  %44 = load i32, ptr %.pre65, align 8, !tbaa !29
  %45 = getelementptr inbounds nuw i8, ptr %.pre65, i64 4
  %46 = load i32, ptr %45, align 4, !tbaa !102
  %47 = getelementptr inbounds nuw i8, ptr %.pre65, i64 8
  %48 = load i32, ptr %47, align 8, !tbaa !42
  %49 = sub nsw i32 %48, %46
  %50 = getelementptr inbounds nuw i8, ptr %0, i64 176
  %51 = load i32, ptr %50, align 8, !tbaa !64
  %52 = sub nsw i32 %51, %46
  %53 = sitofp i32 %52 to double
  %54 = sitofp i32 %49 to double
  %55 = fdiv double %53, %54
  %56 = call i32 @Sto_ManMemoryReport(ptr noundef nonnull %.pre65) #19
  %57 = sitofp i32 %56 to double
  %58 = fmul double %57, 0x3EB0000000000000
  %59 = call i32 (ptr, ...) @printf(ptr noundef nonnull dereferenceable(1) @.str.20, i32 noundef %44, i32 noundef %46, i32 noundef %49, i32 noundef %51, double noundef %55, double noundef %58)
  call void @llvm.lifetime.start.p0(i64 16, ptr nonnull %5) #19
  %60 = call i32 @clock_gettime(i32 noundef 1, ptr noundef nonnull %5) #19
  %61 = icmp slt i32 %60, 0
  br i1 %61, label %Abc_Clock.exit53, label %62

62:                                               ; preds = %43
  %63 = load i64, ptr %5, align 8, !tbaa !54
  %64 = mul nsw i64 %63, 1000000
  %65 = getelementptr inbounds nuw i8, ptr %5, i64 8
  %66 = load i64, ptr %65, align 8, !tbaa !56
  %67 = sdiv i64 %66, 1000
  %68 = add nsw i64 %67, %64
  br label %Abc_Clock.exit53

Abc_Clock.exit53:                                 ; preds = %43, %62
  %.0.i52 = phi i64 [ %68, %62 ], [ -1, %43 ]
  call void @llvm.lifetime.end.p0(i64 16, ptr nonnull %5) #19
  %69 = add i64 %.0.i52, %.0.i.neg
  %70 = getelementptr inbounds nuw i8, ptr %0, i64 232
  %71 = load i64, ptr %70, align 8, !tbaa !103
  %72 = add nsw i64 %69, %71
  store i64 %72, ptr %70, align 8, !tbaa !103
  %.pre = load ptr, ptr %0, align 8, !tbaa !18
  br label %73

73:                                               ; preds = %Abc_Clock.exit53, %42
  %74 = phi ptr [ %.pre, %Abc_Clock.exit53 ], [ %.pre65, %42 ]
  %75 = getelementptr inbounds nuw i8, ptr %74, i64 24
  %76 = load ptr, ptr %75, align 8, !tbaa !104
  %77 = getelementptr i8, ptr %0, i64 160
  %.val = load ptr, ptr %77, align 8, !tbaa !46
  %78 = getelementptr i8, ptr %0, i64 172
  %.val50 = load i32, ptr %78, align 4, !tbaa !40
  %79 = getelementptr i8, ptr %76, i64 24
  %.val51 = load i32, ptr %79, align 8, !tbaa !47
  %80 = mul nsw i32 %.val51, %.val50
  %81 = sext i32 %80 to i64
  %82 = getelementptr inbounds i32, ptr %.val, i64 %81
  store ptr %82, ptr %3, align 8, !tbaa !99
  %83 = getelementptr inbounds nuw i8, ptr %0, i64 144
  %84 = load i32, ptr %83, align 8, !tbaa !39
  ret i32 %84
}